target datalayout = "e-m:e-p270:32:32-p271:32:32-p272:64:64-i64:64-i128:128-f80:128-n8:16:32:64-S128"
target triple = "x86_64-pc-linux-gnu"

%class.ProtoTree = type { %class.QTreeView, ptr, %class.QMenu, %class.QMenu, %class.QList, i32, %class.QList.0, %class.QPoint, ptr, ptr }
%class.QTreeView = type { %class.QAbstractItemView }
%class.QAbstractItemView = type { %class.QAbstractScrollArea }
%class.QAbstractScrollArea = type { %class.QFrame }
%class.QFrame = type { %class.QWidget }
%class.QWidget = type { %class.QObject, %class.QPaintDevice.base, ptr }
%class.QObject = type { ptr, %class.QScopedPointer }
%class.QScopedPointer = type { ptr }
%class.QPaintDevice.base = type <{ ptr, i16 }>
%class.QMenu = type { %class.QWidget }
%class.QList = type { %struct.QArrayDataPointer }
%struct.QArrayDataPointer = type { ptr, ptr, i64 }
%class.QList.0 = type { %struct.QArrayDataPointer.3 }
%struct.QArrayDataPointer.3 = type { ptr, ptr, i64 }
%class.QPoint = type { i32, i32 }
%class.FieldInformation = type { %class.QObject, %class.IDataPrintable, ptr, ptr }
%class.IDataPrintable = type { ptr }

; Function Attrs: mustprogress nounwind null_pointer_is_valid sspstrong uwtable
define linkonce_odr void @_ZN14IDataPrintableD2Ev(ptr noundef align 8 dereferenceable_or_null(8) %0) unnamed_addr #4 comdat align 2 {
  %2 = alloca ptr, align 8
  store ptr %0, ptr %2, align 8
  ret void
}

; Function Attrs: inlinehint mustprogress nounwind null_pointer_is_valid sspstrong uwtable
define linkonce_odr void @_ZN16FieldInformationD2Ev(ptr noundef align 8 dereferenceable_or_null(40) %0) unnamed_addr #5 comdat align 2 {
  %2 = alloca ptr, align 8
  store ptr %0, ptr %2, align 8
  %3 = load ptr, ptr %2, align 8
  %4 = getelementptr inbounds i8, ptr %3, i64 16
  call void @_ZN14IDataPrintableD2Ev(ptr noundef align 8 dereferenceable_or_null(8) %4) #20
  call void @_ZN7QObjectD2Ev(ptr noundef align 8 dereferenceable_or_null(16) %3) #20
  ret void
}

; Function Attrs: mustprogress null_pointer_is_valid sspstrong uwtable
define void @_ZN9ProtoTree13syncCollapsedERK11QModelIndex(ptr noundef align 8 dereferenceable_or_null(208) %0, ptr noundef align 8 dereferenceable(24) %1) #0 align 2 personality ptr @__gxx_personality_v0 {
  %3 = alloca ptr, align 8
  %4 = alloca ptr, align 8
  %5 = alloca %class.FieldInformation, align 8
  %6 = alloca ptr, align 8
  %7 = alloca i32, align 4
  %8 = alloca i32, align 4
  store ptr %0, ptr %3, align 8
  store ptr %1, ptr %4, align 8
  %9 = load ptr, ptr %3, align 8
  call void @llvm.lifetime.start.p0(i64 40, ptr %5) #20
  %10 = getelementptr inbounds nuw %class.ProtoTree, ptr %9, i32 0, i32 1
  %11 = load ptr, ptr %10, align 8
  %12 = load ptr, ptr %4, align 8
  %13 = call noundef ptr @_ZNK14ProtoTreeModel18protoNodeFromIndexERK11QModelIndex(ptr noundef align 8 dereferenceable_or_null(24) %11, ptr noundef align 8 dereferenceable(24) %12)
  call void @_ZN16FieldInformationC1EPK9ProtoNodeP7QObject(ptr noundef align 8 dereferenceable_or_null(40) %5, ptr noundef %13, ptr noundef null)
  %14 = invoke noundef zeroext i1 @_ZNK16FieldInformation7isValidEv(ptr noundef align 8 dereferenceable_or_null(40) %5)
          to label %15 unwind label %17

15:                                               ; preds = %2
  br i1 %14, label %21, label %16

16:                                               ; preds = %15
  store i32 1, ptr %8, align 4
  br label %30

17:                                               ; preds = %27, %25, %21, %2
  %18 = landingpad { ptr, i32 }
          cleanup
  %19 = extractvalue { ptr, i32 } %18, 0
  store ptr %19, ptr %6, align 8
  %20 = extractvalue { ptr, i32 } %18, 1
  store i32 %20, ptr %7, align 4
  call void @_ZN16FieldInformationD2Ev(ptr noundef align 8 dereferenceable_or_null(40) %5) #20
  call void @llvm.lifetime.end.p0(i64 40, ptr %5) #20
  br label %33

21:                                               ; preds = %15
  %22 = invoke noundef i32 @_ZN16FieldInformation8treeTypeEv(ptr noundef align 8 dereferenceable_or_null(40) %5)
          to label %23 unwind label %17

23:                                               ; preds = %21
  %24 = icmp ne i32 %22, -1
  br i1 %24, label %25, label %29

25:                                               ; preds = %23
  %26 = invoke noundef i32 @_ZN16FieldInformation8treeTypeEv(ptr noundef align 8 dereferenceable_or_null(40) %5)
          to label %27 unwind label %17

27:                                               ; preds = %25
  invoke void @tree_expanded_set(i32 noundef %26, i1 noundef zeroext false)
          to label %28 unwind label %17

28:                                               ; preds = %27
  br label %29

29:                                               ; preds = %28, %23
  store i32 0, ptr %8, align 4
  br label %30

30:                                               ; preds = %29, %16
  call void @_ZN16FieldInformationD2Ev(ptr noundef align 8 dereferenceable_or_null(40) %5) #20
  call void @llvm.lifetime.end.p0(i64 40, ptr %5) #20
  %31 = load i32, ptr %8, align 4
  switch i32 %31, label %38 [
    i32 0, label %32
    i32 1, label %32
  ]

32:                                               ; preds = %30, %30
  ret void

33:                                               ; preds = %17
  %34 = load ptr, ptr %6, align 8
  %35 = load i32, ptr %7, align 4
  %36 = insertvalue { ptr, i32 } poison, ptr %34, 0
  %37 = insertvalue { ptr, i32 } %36, i32 %35, 1
  resume { ptr, i32 } %37

38:                                               ; preds = %30
  unreachable
}